target datalayout = "e-m:e-p270:32:32-p271:32:32-p272:64:64-i64:64-i128:128-f80:128-n8:16:32:64-S128"
target triple = "x86_64-pc-linux-gnu"

%struct.SDL_GPUDevice = type { ptr, ptr, ptr, ptr, ptr, ptr, ptr, ptr, ptr, ptr, ptr, ptr, ptr, ptr, ptr, ptr, ptr, ptr, ptr, ptr, ptr, ptr, ptr, ptr, ptr, ptr, ptr, ptr, ptr, ptr, ptr, ptr, ptr, ptr, ptr, ptr, ptr, ptr, ptr, ptr, ptr, ptr, ptr, ptr, ptr, ptr, ptr, ptr, ptr, ptr, ptr, ptr, ptr, ptr, ptr, ptr, ptr, ptr, ptr, ptr, ptr, ptr, ptr, ptr, ptr, ptr, ptr, ptr, ptr, ptr, ptr, ptr, ptr, ptr, ptr, ptr, ptr, ptr, ptr, ptr, ptr, ptr, ptr, ptr, ptr, i32, i8 }

@.str.3 = private unnamed_addr constant [19 x i8] c"Invalid GPU device\00", align 1
@.str.8 = private unnamed_addr constant [103 x i8] c"generated/home/dtcxzyw/WorkSpace/Projects/compilers/llvm-opt-benchmark/bench/sdl/SDL/src/gpu/SDL_gpu.c\00", align 1
@SDL_SetGPUAllowedFramesInFlight_REAL.sdl_assert_data = internal global { i8, [3 x i8], i32, ptr, ptr, i32, [4 x i8], ptr, ptr } { i8 0, [3 x i8] zeroinitializer, i32 0, ptr @.str.360, ptr null, i32 0, [4 x i8] zeroinitializer, ptr null, ptr null }, align 8
@__func__.SDL_SetGPUAllowedFramesInFlight_REAL = private unnamed_addr constant [37 x i8] c"SDL_SetGPUAllowedFramesInFlight_REAL\00", align 1

; Function Attrs: nounwind uwtable
define hidden zeroext i1 @SDL_SetGPUAllowedFramesInFlight_REAL(ptr noundef %0, i32 noundef %1) #0 {
  %3 = alloca i1, align 1
  %4 = alloca ptr, align 8
  %5 = alloca i32, align 4
  %6 = alloca i32, align 4
  %7 = alloca i32, align 4
  store ptr %0, ptr %4, align 8
  store i32 %1, ptr %5, align 4
  %8 = load ptr, ptr %4, align 8
  %9 = icmp eq ptr %8, null
  br i1 %9, label %10, label %12

10:                                               ; preds = %2
  %11 = call zeroext i1 (ptr, ...) @SDL_SetError_REAL(ptr noundef @.str.3)
  store i1 false, ptr %3, align 1
  br label %63

12:                                               ; preds = %2
  %13 = load ptr, ptr %4, align 8
  %14 = getelementptr inbounds nuw %struct.SDL_GPUDevice, ptr %13, i32 0, i32 86
  %15 = load i8, ptr %14, align 4, !range !5, !noundef !6
  %16 = trunc i8 %15 to i1
  br i1 %16, label %17, label %41

17:                                               ; preds = %12
  %18 = load i32, ptr %5, align 4
  %19 = icmp ult i32 %18, 1
  br i1 %19, label %23, label %20

20:                                               ; preds = %17
  %21 = load i32, ptr %5, align 4
  %22 = icmp ugt i32 %21, 3
  br i1 %22, label %23, label %40

23:                                               ; preds = %20, %17
  br label %24

24:                                               ; preds = %23
  br label %25

25:                                               ; preds = %24, %36
  call void @llvm.lifetime.start.p0(i64 4, ptr %6) #6
  %26 = call i32 @SDL_ReportAssertion_REAL(ptr noundef @SDL_SetGPUAllowedFramesInFlight_REAL.sdl_assert_data, ptr noundef @__func__.SDL_SetGPUAllowedFramesInFlight_REAL, ptr noundef @.str.8, i32 noundef 2918)
  store i32 %26, ptr %6, align 4
  %27 = load i32, ptr %6, align 4
  %28 = icmp eq i32 %27, 0
  br i1 %28, label %29, label %30

29:                                               ; preds = %25
  store i32 4, ptr %7, align 4
  br label %36

30:                                               ; preds = %25
  %31 = load i32, ptr %6, align 4
  %32 = icmp eq i32 %31, 1
  br i1 %32, label %33, label %34

33:                                               ; preds = %30
  call void @llvm.debugtrap()
  br label %34

34:                                               ; preds = %33, %30
  br label %35

35:                                               ; preds = %34
  store i32 5, ptr %7, align 4
  br label %36

36:                                               ; preds = %35, %29
  call void @llvm.lifetime.end.p0(i64 4, ptr %6) #6
  %37 = load i32, ptr %7, align 4
  switch i32 %37, label %65 [
    i32 4, label %25
    i32 5, label %38
  ]

38:                                               ; preds = %36
  br label %39

39:                                               ; preds = %38
  br label %40

40:                                               ; preds = %39, %20
  br label %41

41:                                               ; preds = %40, %12
  %42 = load i32, ptr %5, align 4
  %43 = icmp ult i32 %42, 1
  br i1 %43, label %44, label %45

44:                                               ; preds = %41
  br label %53

45:                                               ; preds = %41
  %46 = load i32, ptr %5, align 4
  %47 = icmp ugt i32 %46, 3
  br i1 %47, label %48, label %49

48:                                               ; preds = %45
  br label %51

49:                                               ; preds = %45
  %50 = load i32, ptr %5, align 4
  br label %51

51:                                               ; preds = %49, %48
  %52 = phi i32 [ 3, %48 ], [ %50, %49 ]
  br label %53

53:                                               ; preds = %51, %44
  %54 = phi i32 [ 1, %44 ], [ %52, %51 ]
  store i32 %54, ptr %5, align 4
  %55 = load ptr, ptr %4, align 8
  %56 = getelementptr inbounds nuw %struct.SDL_GPUDevice, ptr %55, i32 0, i32 68
  %57 = load ptr, ptr %56, align 8
  %58 = load ptr, ptr %4, align 8
  %59 = getelementptr inbounds nuw %struct.SDL_GPUDevice, ptr %58, i32 0, i32 83
  %60 = load ptr, ptr %59, align 8
  %61 = load i32, ptr %5, align 4
  %62 = call zeroext i1 %57(ptr noundef %60, i32 noundef %61)
  store i1 %62, ptr %3, align 1
  br label %63

63:                                               ; preds = %53, %10
  %64 = load i1, ptr %3, align 1
  ret i1 %64

65:                                               ; preds = %36
  unreachable
}