; Function Attrs: nounwind uwtable
define hidden zeroext i1 @SDL_SetGPUAllowedFramesInFlight_REAL(ptr noundef readonly captures(address_is_null) %0, i32 noundef %1) local_unnamed_addr #0 {
  %3 = icmp eq ptr %0, null
  br i1 %3, label %4, label %6

4:                                                ; preds = %2
  %5 = tail call zeroext i1 (ptr, ...) @SDL_SetError_REAL(ptr noundef nonnull @.str.3) #7
  br label %21

6:                                                ; preds = %2
  %7 = getelementptr inbounds nuw i8, ptr %0, i64 684
  %8 = load i8, ptr %7, align 4, !range !5, !noundef !6
  %9 = trunc nuw i8 %8 to i1
  %10 = add i32 %1, -4
  %or.cond = icmp ult i32 %10, -3
  %or.cond17 = and i1 %or.cond, %9
  br i1 %or.cond17, label %.preheader, label %.thread

.preheader:                                       ; preds = %6, %.preheader
  %11 = tail call i32 @SDL_ReportAssertion_REAL(ptr noundef nonnull @SDL_SetGPUAllowedFramesInFlight_REAL.sdl_assert_data, ptr noundef nonnull @__func__.SDL_SetGPUAllowedFramesInFlight_REAL, ptr noundef nonnull @.str.8, i32 noundef 2918) #7
  switch i32 %11, label %.thread [
    i32 0, label %.preheader
    i32 1, label %12
  ]

12:                                               ; preds = %.preheader
  tail call void @llvm.debugtrap()
  br label %.thread

.thread:                                          ; preds = %.preheader, %12, %6
  %13 = icmp eq i32 %1, 0
  %14 = tail call i32 @llvm.umin.i32(i32 %1, i32 3)
  %15 = select i1 %13, i32 1, i32 %14
  %16 = getelementptr inbounds nuw i8, ptr %0, i64 544
  %17 = load ptr, ptr %16, align 8
  %18 = getelementptr inbounds nuw i8, ptr %0, i64 664
  %19 = load ptr, ptr %18, align 8
  %20 = tail call zeroext i1 %17(ptr noundef %19, i32 noundef %15) #7
  br label %21

21:                                               ; preds = %.thread, %4
  %.014 = phi i1 [ false, %4 ], [ %20, %.thread ]
  ret i1 %.014
}